target datalayout = "e-m:e-p270:32:32-p271:32:32-p272:64:64-i64:64-i128:128-f80:128-n8:16:32:64-S128"
target triple = "x86_64-pc-linux-gnu"

@opt_verbosity = internal global i32 6, align 4
@bio_err = external global ptr, align 8
@.str.351 = private unnamed_addr constant [22 x i8] c"../openssl/apps/cmp.c\00", align 1
@.str.353 = private unnamed_addr constant [1 x i8] zeroinitializer, align 1
@.str.355 = private unnamed_addr constant [5 x i8] c"info\00", align 1
@cmp_ctx = internal global ptr null, align 8
@.str.363 = private unnamed_addr constant [8 x i8] c"warning\00", align 1
@opt_server = internal global ptr null, align 8
@.str.655 = private unnamed_addr constant [18 x i8] c"PKIStatusInfo buf\00", align 1
@.str.656 = private unnamed_addr constant [7 x i8] c" from \00", align 1
@.str.657 = private unnamed_addr constant [34 x i8] c"%s:%s:%d:CMP %s: received%s%s %s\0A\00", align 1
@__func__.print_status = private unnamed_addr constant [13 x i8] c"print_status\00", align 1
@.str.658 = private unnamed_addr constant [13 x i8] c"server error\00", align 1
@.str.659 = private unnamed_addr constant [15 x i8] c"internal error\00", align 1
@.str.660 = private unnamed_addr constant [20 x i8] c"<unknown PKIStatus>\00", align 1

; Function Attrs: nounwind uwtable
define internal void @print_status() #0 {
  %1 = alloca i32, align 4
  %2 = alloca ptr, align 8
  %3 = alloca ptr, align 8
  %4 = alloca ptr, align 8
  %5 = alloca ptr, align 8
  call void @llvm.lifetime.start.p0(i64 4, ptr %1) #11
  %6 = load ptr, ptr @cmp_ctx, align 8, !tbaa !17
  %7 = call i32 @OSSL_CMP_CTX_get_status(ptr noundef %6)
  store i32 %7, ptr %1, align 4, !tbaa !4
  call void @llvm.lifetime.start.p0(i64 8, ptr %2) #11
  %8 = call ptr @app_malloc(i64 noundef 1024, ptr noundef @.str.655)
  store ptr %8, ptr %2, align 8, !tbaa !11
  call void @llvm.lifetime.start.p0(i64 8, ptr %3) #11
  %9 = load ptr, ptr @cmp_ctx, align 8, !tbaa !17
  %10 = load ptr, ptr %2, align 8, !tbaa !11
  %11 = call ptr @OSSL_CMP_CTX_snprint_PKIStatus(ptr noundef %9, ptr noundef %10, i64 noundef 1024)
  store ptr %11, ptr %3, align 8, !tbaa !11
  call void @llvm.lifetime.start.p0(i64 8, ptr %4) #11
  store ptr @.str.353, ptr %4, align 8, !tbaa !11
  call void @llvm.lifetime.start.p0(i64 8, ptr %5) #11
  store ptr @.str.353, ptr %5, align 8, !tbaa !11
  %12 = load ptr, ptr @opt_server, align 8, !tbaa !11
  %13 = icmp ne ptr %12, null
  br i1 %13, label %14, label %16

14:                                               ; preds = %0
  store ptr @.str.656, ptr %4, align 8, !tbaa !11
  %15 = load ptr, ptr @opt_server, align 8, !tbaa !11
  store ptr %15, ptr %5, align 8, !tbaa !11
  br label %16

16:                                               ; preds = %14, %0
  %17 = load i32, ptr %1, align 4, !tbaa !4
  %18 = icmp eq i32 %17, 0
  br i1 %18, label %19, label %20

19:                                               ; preds = %16
  br label %60

20:                                               ; preds = %16
  %21 = load i32, ptr %1, align 4, !tbaa !4
  %22 = icmp eq i32 %21, 2
  br i1 %22, label %26, label %23

23:                                               ; preds = %20
  %24 = load i32, ptr %1, align 4, !tbaa !4
  %25 = icmp eq i32 %24, 3
  br i1 %25, label %26, label %27

26:                                               ; preds = %23, %20
  br label %59

27:                                               ; preds = %23
  %28 = load i32, ptr @opt_verbosity, align 4, !tbaa !4
  %29 = icmp sgt i32 4, %28
  br i1 %29, label %30, label %31

30:                                               ; preds = %27
  br label %58

31:                                               ; preds = %27
  %32 = load ptr, ptr @bio_err, align 8, !tbaa !21
  %33 = load i32, ptr %1, align 4, !tbaa !4
  %34 = icmp eq i32 %33, 0
  br i1 %34, label %35, label %36

35:                                               ; preds = %31
  br label %46

36:                                               ; preds = %31
  %37 = load i32, ptr %1, align 4, !tbaa !4
  %38 = icmp eq i32 %37, 2
  br i1 %38, label %39, label %40

39:                                               ; preds = %36
  br label %44

40:                                               ; preds = %36
  %41 = load i32, ptr %1, align 4, !tbaa !4
  %42 = icmp eq i32 %41, 3
  %43 = select i1 %42, ptr @.str.659, ptr @.str.363
  br label %44

44:                                               ; preds = %40, %39
  %45 = phi ptr [ @.str.658, %39 ], [ %43, %40 ]
  br label %46

46:                                               ; preds = %44, %35
  %47 = phi ptr [ @.str.355, %35 ], [ %45, %44 ]
  %48 = load ptr, ptr %4, align 8, !tbaa !11
  %49 = load ptr, ptr %5, align 8, !tbaa !11
  %50 = load ptr, ptr %3, align 8, !tbaa !11
  %51 = icmp ne ptr %50, null
  br i1 %51, label %52, label %54

52:                                               ; preds = %46
  %53 = load ptr, ptr %3, align 8, !tbaa !11
  br label %55

54:                                               ; preds = %46
  br label %55

55:                                               ; preds = %54, %52
  %56 = phi ptr [ %53, %52 ], [ @.str.660, %54 ]
  %57 = call i32 (ptr, ptr, ...) @BIO_printf(ptr noundef %32, ptr noundef @.str.657, ptr noundef @__func__.print_status, ptr noundef @.str.351, i32 noundef 3388, ptr noundef %47, ptr noundef %48, ptr noundef %49, ptr noundef %56)
  br label %58

58:                                               ; preds = %55, %30
  br label %59

59:                                               ; preds = %58, %26
  br label %60

60:                                               ; preds = %59, %19
  %61 = load ptr, ptr %2, align 8, !tbaa !11
  call void @CRYPTO_free(ptr noundef %61, ptr noundef @.str.351, i32 noundef 3389)
  call void @llvm.lifetime.end.p0(i64 8, ptr %5) #11
  call void @llvm.lifetime.end.p0(i64 8, ptr %4) #11
  call void @llvm.lifetime.end.p0(i64 8, ptr %3) #11
  call void @llvm.lifetime.end.p0(i64 8, ptr %2) #11
  call void @llvm.lifetime.end.p0(i64 4, ptr %1) #11
  ret void
}