; Function Attrs: nounwind uwtable
define internal fastcc void @print_status() unnamed_addr #0 {
  %1 = load ptr, ptr @cmp_ctx, align 8, !tbaa !36
  %2 = tail call i32 @OSSL_CMP_CTX_get_status(ptr noundef %1) #12
  %3 = tail call ptr @app_malloc(i64 noundef 1024, ptr noundef nonnull @.str.655) #12
  %4 = load ptr, ptr @cmp_ctx, align 8, !tbaa !36
  %5 = tail call ptr @OSSL_CMP_CTX_snprint_PKIStatus(ptr noundef %4, ptr noundef %3, i64 noundef 1024) #12
  %6 = load ptr, ptr @opt_server, align 8, !tbaa !4
  %.not = icmp eq ptr %6, null
  %spec.select = select i1 %.not, ptr @.str.353, ptr @.str.656
  %spec.select18 = select i1 %.not, ptr @.str.353, ptr %6
  %7 = icmp eq i32 %2, 0
  br i1 %7, label %16, label %8

8:                                                ; preds = %0
  %9 = and i32 %2, -2
  %or.cond = icmp eq i32 %9, 2
  %10 = load i32, ptr @opt_verbosity, align 4
  %11 = icmp slt i32 %10, 4
  %or.cond3 = select i1 %or.cond, i1 true, i1 %11
  br i1 %or.cond3, label %16, label %12

12:                                               ; preds = %8
  %13 = load ptr, ptr @bio_err, align 8, !tbaa !12
  %.not17 = icmp eq ptr %5, null
  %14 = select i1 %.not17, ptr @.str.660, ptr %5
  %15 = tail call i32 (ptr, ptr, ...) @BIO_printf(ptr noundef %13, ptr noundef nonnull @.str.657, ptr noundef nonnull @__func__.print_status, ptr noundef nonnull @.str.351, i32 noundef 3388, ptr noundef nonnull @.str.363, ptr noundef nonnull %spec.select, ptr noundef nonnull %spec.select18, ptr noundef nonnull %14) #12
  br label %16

16:                                               ; preds = %8, %12, %0
  tail call void @CRYPTO_free(ptr noundef %3, ptr noundef nonnull @.str.351, i32 noundef 3389) #12
  ret void
}